target datalayout = "e-m:e-p270:32:32-p271:32:32-p272:64:64-i64:64-i128:128-f80:128-n8:16:32:64-S128"
target triple = "x86_64-pc-linux-gnu"

%class.b3AlignedObjectArray.9 = type <{ [4 x i8], i32, i32, [4 x i8], ptr, i8, [7 x i8] }>

; Function Attrs: inlinehint mustprogress nounwind uwtable
define linkonce_odr dso_local noundef nonnull align 4 dereferenceable(4) ptr @_ZN20b3AlignedObjectArrayIiEixEi(ptr noundef nonnull align 8 dereferenceable(25) %0, i32 noundef %1) #8 comdat align 2 {
  %3 = alloca ptr, align 8
  %4 = alloca i32, align 4
  store ptr %0, ptr %3, align 8, !tbaa !89
  store i32 %1, ptr %4, align 4, !tbaa !39
  %5 = load ptr, ptr %3, align 8
  %6 = getelementptr inbounds nuw %class.b3AlignedObjectArray.9, ptr %5, i32 0, i32 4
  %7 = load ptr, ptr %6, align 8, !tbaa !92
  %8 = load i32, ptr %4, align 4, !tbaa !39
  %9 = sext i32 %8 to i64
  %10 = getelementptr inbounds i32, ptr %7, i64 %9
  ret ptr %10
}

; Function Attrs: mustprogress uwtable
define dso_local void @_ZN8b3FillCL11executeHostER20b3AlignedObjectArrayIiEiii(ptr noundef nonnull align 8 dereferenceable(48) %0, ptr noundef nonnull align 8 dereferenceable(25) %1, i32 noundef %2, i32 noundef %3, i32 noundef %4) #0 align 2 {
  %6 = alloca ptr, align 8
  %7 = alloca ptr, align 8
  %8 = alloca i32, align 4
  %9 = alloca i32, align 4
  %10 = alloca i32, align 4
  %11 = alloca i32, align 4
  store ptr %0, ptr %6, align 8, !tbaa !4
  store ptr %1, ptr %7, align 8, !tbaa !89
  store i32 %2, ptr %8, align 4, !tbaa !39
  store i32 %3, ptr %9, align 4, !tbaa !39
  store i32 %4, ptr %10, align 4, !tbaa !39
  call void @llvm.lifetime.start.p0(i64 4, ptr %11) #10
  store i32 0, ptr %11, align 4, !tbaa !39
  br label %12

12:                                               ; preds = %24, %5
  %13 = load i32, ptr %11, align 4, !tbaa !39
  %14 = load i32, ptr %9, align 4, !tbaa !39
  %15 = icmp slt i32 %13, %14
  br i1 %15, label %17, label %16

16:                                               ; preds = %12
  call void @llvm.lifetime.end.p0(i64 4, ptr %11) #10
  br label %27

17:                                               ; preds = %12
  %18 = load i32, ptr %8, align 4, !tbaa !39
  %19 = load ptr, ptr %7, align 8, !tbaa !89
  %20 = load i32, ptr %11, align 4, !tbaa !39
  %21 = load i32, ptr %10, align 4, !tbaa !39
  %22 = add nsw i32 %20, %21
  %23 = call noundef nonnull align 4 dereferenceable(4) ptr @_ZN20b3AlignedObjectArrayIiEixEi(ptr noundef nonnull align 8 dereferenceable(25) %19, i32 noundef %22)
  store i32 %18, ptr %23, align 4, !tbaa !39
  br label %24

24:                                               ; preds = %17
  %25 = load i32, ptr %11, align 4, !tbaa !39
  %26 = add nsw i32 %25, 1
  store i32 %26, ptr %11, align 4, !tbaa !39
  br label %12, !llvm.loop !91

27:                                               ; preds = %16
  ret void
}