; Function Attrs: mustprogress nofree norecurse nosync nounwind memory(write, argmem: readwrite, inaccessiblemem: none) uwtable
define dso_local void @_ZN8b3FillCL11executeHostER20b3AlignedObjectArrayIiEiii(ptr noundef nonnull readnone align 8 captures(none) dereferenceable(48) %0, ptr noundef nonnull readonly align 8 captures(none) dereferenceable(25) %1, i32 noundef %2, i32 noundef %3, i32 noundef %4) local_unnamed_addr #8 align 2 {
  %6 = icmp sgt i32 %3, 0
  br i1 %6, label %.lr.ph, label %._crit_edge

.lr.ph:                                           ; preds = %5
  %7 = getelementptr inbounds nuw i8, ptr %1, i64 16
  %8 = load ptr, ptr %7, align 8, !tbaa !64
  %9 = sext i32 %4 to i64
  %wide.trip.count = zext nneg i32 %3 to i64
  %invariant.gep = getelementptr i32, ptr %8, i64 %9
  br label %10

._crit_edge:                                      ; preds = %10, %5
  ret void

10:                                               ; preds = %.lr.ph, %10
  %indvars.iv = phi i64 [ 0, %.lr.ph ], [ %indvars.iv.next, %10 ]
  %gep = getelementptr i32, ptr %invariant.gep, i64 %indvars.iv
  store i32 %2, ptr %gep, align 4, !tbaa !20
  %indvars.iv.next = add nuw nsw i64 %indvars.iv, 1
  %exitcond.not = icmp eq i64 %indvars.iv.next, %wide.trip.count
  br i1 %exitcond.not, label %._crit_edge, label %10, !llvm.loop !68
}